; Function Attrs: nounwind uwtable
define internal void @msgbox_size_changed_event_cb(ptr noundef %0) #0 {
  %2 = tail call ptr @lv_event_get_target(ptr noundef %0) #3
  %3 = getelementptr inbounds nuw i8, ptr %2, i64 72
  %4 = load ptr, ptr %3, align 8, !tbaa !3
  %5 = tail call ptr @lv_obj_get_style_prop(ptr noundef %2, i32 noundef 0, i8 noundef zeroext 2) #3
  %6 = ptrtoint ptr %5 to i64
  %7 = and i64 %6, 4294967295
  %8 = icmp ne i64 %7, 1073741823
  %9 = zext i1 %8 to i8
  tail call void @lv_obj_set_flex_grow(ptr noundef %4, i8 noundef zeroext %9) #3
  ret void
}